target datalayout = "e-m:e-p270:32:32-p271:32:32-p272:64:64-i64:64-i128:128-f80:128-n8:16:32:64-S128"
target triple = "x86_64-pc-linux-gnu"

%struct._lv_vector_draw_dsc_t = type { %struct._lv_vector_fill_dsc_t, %struct._lv_vector_stroke_dsc_t, %struct._lv_matrix_t, i32, %struct.lv_area_t }
%struct._lv_vector_fill_dsc_t = type { i32, %struct.lv_color32_t, i8, i32, %struct._lv_draw_image_dsc_t, %struct._lv_vector_gradient_t, %struct._lv_matrix_t }
%struct.lv_color32_t = type { i8, i8, i8, i8 }
%struct._lv_draw_image_dsc_t = type { %struct.lv_draw_dsc_base_t, ptr, %struct.lv_image_header_t, i32, i32, i32, i32, i32, %struct.lv_point_t, %struct.lv_color_t, i8, i8, i8, ptr, %struct.lv_area_t, i32, ptr }
%struct.lv_draw_dsc_base_t = type { ptr, i32, i32, i32, ptr, i64, ptr }
%struct.lv_image_header_t = type <{ i64, i32 }>
%struct.lv_point_t = type { i32, i32 }
%struct.lv_color_t = type { i8, i8, i8 }
%struct._lv_vector_gradient_t = type { i32, [2 x %struct.lv_gradient_stop_t], i16, float, float, float, float, float, float, float, i32 }
%struct.lv_gradient_stop_t = type { %struct.lv_color_t, i8, i8 }
%struct._lv_vector_stroke_dsc_t = type { i32, %struct.lv_color32_t, i8, float, %struct._lv_array_t, i32, i32, i16, %struct._lv_vector_gradient_t, %struct._lv_matrix_t }
%struct._lv_array_t = type { ptr, i32, i32, i32, i8 }
%struct._lv_matrix_t = type { [3 x [3 x float]] }
%struct.lv_area_t = type { i32, i32, i32, i32 }
%struct._lv_svg_render_obj = type { ptr, i32, ptr, %struct._lv_vector_draw_dsc_t, %struct._lv_matrix_t, ptr, ptr, ptr, ptr, ptr, ptr, ptr, ptr, ptr }
%struct.lv_svg_render_rect_t = type { %struct._lv_svg_render_obj, float, float, float, float, float, float }

; Function Attrs: nounwind uwtable
define internal void @_get_rect_bounds(ptr noundef %0, ptr noundef %1) #0 {
  %3 = alloca ptr, align 8
  %4 = alloca ptr, align 8
  %5 = alloca ptr, align 8
  store ptr %0, ptr %3, align 8, !tbaa !3
  store ptr %1, ptr %4, align 8, !tbaa !3
  call void @llvm.lifetime.start.p0(i64 8, ptr %5) #8
  %6 = load ptr, ptr %3, align 8, !tbaa !3
  store ptr %6, ptr %5, align 8, !tbaa !3
  %7 = load ptr, ptr %5, align 8, !tbaa !3
  %8 = getelementptr inbounds nuw %struct.lv_svg_render_rect_t, ptr %7, i32 0, i32 1
  %9 = load float, ptr %8, align 8, !tbaa !169
  %10 = fptosi float %9 to i32
  %11 = load ptr, ptr %4, align 8, !tbaa !3
  %12 = getelementptr inbounds nuw %struct.lv_area_t, ptr %11, i32 0, i32 0
  store i32 %10, ptr %12, align 4, !tbaa !148
  %13 = load ptr, ptr %5, align 8, !tbaa !3
  %14 = getelementptr inbounds nuw %struct.lv_svg_render_rect_t, ptr %13, i32 0, i32 2
  %15 = load float, ptr %14, align 4, !tbaa !170
  %16 = fptosi float %15 to i32
  %17 = load ptr, ptr %4, align 8, !tbaa !3
  %18 = getelementptr inbounds nuw %struct.lv_area_t, ptr %17, i32 0, i32 1
  store i32 %16, ptr %18, align 4, !tbaa !149
  %19 = load ptr, ptr %5, align 8, !tbaa !3
  %20 = getelementptr inbounds nuw %struct.lv_svg_render_rect_t, ptr %19, i32 0, i32 1
  %21 = load float, ptr %20, align 8, !tbaa !169
  %22 = load ptr, ptr %5, align 8, !tbaa !3
  %23 = getelementptr inbounds nuw %struct.lv_svg_render_rect_t, ptr %22, i32 0, i32 3
  %24 = load float, ptr %23, align 8, !tbaa !171
  %25 = fadd float %21, %24
  %26 = fptosi float %25 to i32
  %27 = load ptr, ptr %4, align 8, !tbaa !3
  %28 = getelementptr inbounds nuw %struct.lv_area_t, ptr %27, i32 0, i32 2
  store i32 %26, ptr %28, align 4, !tbaa !151
  %29 = load ptr, ptr %5, align 8, !tbaa !3
  %30 = getelementptr inbounds nuw %struct.lv_svg_render_rect_t, ptr %29, i32 0, i32 2
  %31 = load float, ptr %30, align 4, !tbaa !170
  %32 = load ptr, ptr %5, align 8, !tbaa !3
  %33 = getelementptr inbounds nuw %struct.lv_svg_render_rect_t, ptr %32, i32 0, i32 4
  %34 = load float, ptr %33, align 4, !tbaa !172
  %35 = fadd float %31, %34
  %36 = fptosi float %35 to i32
  %37 = load ptr, ptr %4, align 8, !tbaa !3
  %38 = getelementptr inbounds nuw %struct.lv_area_t, ptr %37, i32 0, i32 3
  store i32 %36, ptr %38, align 4, !tbaa !153
  call void @llvm.lifetime.end.p0(i64 8, ptr %5) #8
  ret void
}