; Function Attrs: mustprogress nofree norecurse nosync nounwind willreturn memory(argmem: readwrite) uwtable
define internal void @_get_rect_bounds(ptr nocapture noundef readonly %0, ptr nocapture noundef writeonly %1) #5 {
  %3 = getelementptr inbounds nuw i8, ptr %0, i64 576
  %4 = load float, ptr %3, align 8, !tbaa !172
  %5 = fptosi float %4 to i32
  store i32 %5, ptr %1, align 4, !tbaa !157
  %6 = getelementptr inbounds nuw i8, ptr %0, i64 580
  %7 = load float, ptr %6, align 4, !tbaa !173
  %8 = fptosi float %7 to i32
  %9 = getelementptr inbounds nuw i8, ptr %1, i64 4
  store i32 %8, ptr %9, align 4, !tbaa !158
  %10 = getelementptr inbounds nuw i8, ptr %0, i64 584
  %11 = load float, ptr %10, align 8, !tbaa !174
  %12 = fadd float %4, %11
  %13 = fptosi float %12 to i32
  %14 = getelementptr inbounds nuw i8, ptr %1, i64 8
  store i32 %13, ptr %14, align 4, !tbaa !160
  %15 = getelementptr inbounds nuw i8, ptr %0, i64 588
  %16 = load float, ptr %15, align 4, !tbaa !175
  %17 = fadd float %7, %16
  %18 = fptosi float %17 to i32
  %19 = getelementptr inbounds nuw i8, ptr %1, i64 12
  store i32 %18, ptr %19, align 4, !tbaa !162
  ret void
}